target datalayout = "e-m:e-p270:32:32-p271:32:32-p272:64:64-i64:64-i128:128-f80:128-n8:16:32:64-S128"
target triple = "x86_64-pc-linux-gnu"

%struct.lua_State = type { i8, i8, i8, i8, i8, i8, i8, ptr, ptr, ptr, ptr, ptr, ptr, ptr, ptr, i32, i32, i16, i16, i32, ptr, ptr, ptr, ptr, ptr }
%struct.global_State = type { %struct.stringtable, ptr, ptr, i8, i8, ptr, ptr, ptr, i64, i64, i32, i32, i32, [40 x ptr], [40 x ptr], ptr, ptr, ptr, [256 x i64], ptr, %struct.UpVal, [11 x ptr], [11 x ptr], [21 x ptr], %struct.lua_TValue, %struct.lua_TValue, i32, ptr, i64, [4 x i64], %struct.lua_Callbacks, %struct.lua_ExecutionCallbacks, [128 x ptr], [128 x ptr], [128 x ptr], %struct.GCStats }
%struct.stringtable = type { ptr, i32, i32 }
%struct.UpVal = type { i8, i8, i8, i8, ptr, %union.anon }
%union.anon = type { %struct.anon }
%struct.anon = type { ptr, ptr, ptr }
%struct.lua_TValue = type { %union.Value, [1 x i32], i32 }
%union.Value = type { ptr }
%struct.lua_Callbacks = type { ptr, ptr, ptr, ptr, ptr, ptr, ptr, ptr, ptr }
%struct.lua_ExecutionCallbacks = type { ptr, ptr, ptr, ptr, ptr, ptr, ptr }
%struct.GCStats = type { [32 x i32], i32, i32, i64, i64, i64, double, double, double }
%struct.TString = type { i8, i8, i8, i16, ptr, i32, i32, [1 x i8] }

; Function Attrs: mustprogress uwtable
define hidden void @_Z11luaS_resizeP9lua_Statei(ptr noundef %0, i32 noundef %1) #2 {
  %3 = alloca ptr, align 8
  %4 = alloca i32, align 4
  %5 = alloca ptr, align 8
  %6 = alloca ptr, align 8
  %7 = alloca i32, align 4
  %8 = alloca i32, align 4
  %9 = alloca ptr, align 8
  %10 = alloca ptr, align 8
  %11 = alloca i32, align 4
  %12 = alloca i32, align 4
  store ptr %0, ptr %3, align 8
  store i32 %1, ptr %4, align 4
  %13 = load ptr, ptr %3, align 8
  %14 = load i32, ptr %4, align 4
  %15 = sext i32 %14 to i64
  %16 = icmp ule i64 %15, 2305843009213693951
  br i1 %16, label %17, label %21

17:                                               ; preds = %2
  %18 = load i32, ptr %4, align 4
  %19 = sext i32 %18 to i64
  %20 = mul i64 %19, 8
  br label %24

21:                                               ; preds = %2
  %22 = load ptr, ptr %3, align 8
  call void @_Z11luaM_toobigP9lua_State(ptr noundef %22) #6
  unreachable

23:                                               ; No predecessors!
  br label %24

24:                                               ; preds = %23, %17
  %25 = phi i64 [ %20, %17 ], [ -1, %23 ]
  %26 = call noundef ptr @_Z9luaM_new_P9lua_Statemh(ptr noundef %13, i64 noundef %25, i8 noundef zeroext 0)
  store ptr %26, ptr %5, align 8
  %27 = load ptr, ptr %3, align 8
  %28 = getelementptr inbounds %struct.lua_State, ptr %27, i32 0, i32 9
  %29 = load ptr, ptr %28, align 8
  %30 = getelementptr inbounds %struct.global_State, ptr %29, i32 0, i32 0
  store ptr %30, ptr %6, align 8
  store i32 0, ptr %7, align 4
  br label %31

31:                                               ; preds = %40, %24
  %32 = load i32, ptr %7, align 4
  %33 = load i32, ptr %4, align 4
  %34 = icmp slt i32 %32, %33
  br i1 %34, label %35, label %43

35:                                               ; preds = %31
  %36 = load ptr, ptr %5, align 8
  %37 = load i32, ptr %7, align 4
  %38 = sext i32 %37 to i64
  %39 = getelementptr inbounds ptr, ptr %36, i64 %38
  store ptr null, ptr %39, align 8
  br label %40

40:                                               ; preds = %35
  %41 = load i32, ptr %7, align 4
  %42 = add nsw i32 %41, 1
  store i32 %42, ptr %7, align 4
  br label %31, !llvm.loop !8

43:                                               ; preds = %31
  store i32 0, ptr %8, align 4
  br label %44

44:                                               ; preds = %86, %43
  %45 = load i32, ptr %8, align 4
  %46 = load ptr, ptr %6, align 8
  %47 = getelementptr inbounds %struct.stringtable, ptr %46, i32 0, i32 2
  %48 = load i32, ptr %47, align 4
  %49 = icmp slt i32 %45, %48
  br i1 %49, label %50, label %89

50:                                               ; preds = %44
  %51 = load ptr, ptr %6, align 8
  %52 = getelementptr inbounds %struct.stringtable, ptr %51, i32 0, i32 0
  %53 = load ptr, ptr %52, align 8
  %54 = load i32, ptr %8, align 4
  %55 = sext i32 %54 to i64
  %56 = getelementptr inbounds ptr, ptr %53, i64 %55
  %57 = load ptr, ptr %56, align 8
  store ptr %57, ptr %9, align 8
  br label %58

58:                                               ; preds = %61, %50
  %59 = load ptr, ptr %9, align 8
  %60 = icmp ne ptr %59, null
  br i1 %60, label %61, label %85

61:                                               ; preds = %58
  %62 = load ptr, ptr %9, align 8
  %63 = getelementptr inbounds %struct.TString, ptr %62, i32 0, i32 4
  %64 = load ptr, ptr %63, align 8
  store ptr %64, ptr %10, align 8
  %65 = load ptr, ptr %9, align 8
  %66 = getelementptr inbounds %struct.TString, ptr %65, i32 0, i32 5
  %67 = load i32, ptr %66, align 8
  store i32 %67, ptr %11, align 4
  %68 = load i32, ptr %11, align 4
  %69 = load i32, ptr %4, align 4
  %70 = sub nsw i32 %69, 1
  %71 = and i32 %68, %70
  store i32 %71, ptr %12, align 4
  %72 = load ptr, ptr %5, align 8
  %73 = load i32, ptr %12, align 4
  %74 = sext i32 %73 to i64
  %75 = getelementptr inbounds ptr, ptr %72, i64 %74
  %76 = load ptr, ptr %75, align 8
  %77 = load ptr, ptr %9, align 8
  %78 = getelementptr inbounds %struct.TString, ptr %77, i32 0, i32 4
  store ptr %76, ptr %78, align 8
  %79 = load ptr, ptr %9, align 8
  %80 = load ptr, ptr %5, align 8
  %81 = load i32, ptr %12, align 4
  %82 = sext i32 %81 to i64
  %83 = getelementptr inbounds ptr, ptr %80, i64 %82
  store ptr %79, ptr %83, align 8
  %84 = load ptr, ptr %10, align 8
  store ptr %84, ptr %9, align 8
  br label %58, !llvm.loop !9

85:                                               ; preds = %58
  br label %86

86:                                               ; preds = %85
  %87 = load i32, ptr %8, align 4
  %88 = add nsw i32 %87, 1
  store i32 %88, ptr %8, align 4
  br label %44, !llvm.loop !10

89:                                               ; preds = %44
  %90 = load ptr, ptr %3, align 8
  %91 = load ptr, ptr %6, align 8
  %92 = getelementptr inbounds %struct.stringtable, ptr %91, i32 0, i32 0
  %93 = load ptr, ptr %92, align 8
  %94 = load ptr, ptr %6, align 8
  %95 = getelementptr inbounds %struct.stringtable, ptr %94, i32 0, i32 2
  %96 = load i32, ptr %95, align 4
  %97 = sext i32 %96 to i64
  %98 = mul i64 %97, 8
  call void @_Z10luaM_free_P9lua_StatePvmh(ptr noundef %90, ptr noundef %93, i64 noundef %98, i8 noundef zeroext 0)
  %99 = load i32, ptr %4, align 4
  %100 = load ptr, ptr %6, align 8
  %101 = getelementptr inbounds %struct.stringtable, ptr %100, i32 0, i32 2
  store i32 %99, ptr %101, align 4
  %102 = load ptr, ptr %5, align 8
  %103 = load ptr, ptr %6, align 8
  %104 = getelementptr inbounds %struct.stringtable, ptr %103, i32 0, i32 0
  store ptr %102, ptr %104, align 8
  ret void
}