; Function Attrs: mustprogress uwtable
define hidden void @_Z11luaS_resizeP9lua_Statei(ptr noundef %0, i32 noundef %1) local_unnamed_addr #2 {
  %3 = icmp sgt i32 %1, -1
  br i1 %3, label %4, label %10

4:                                                ; preds = %2
  %5 = zext nneg i32 %1 to i64
  %6 = shl nuw nsw i64 %5, 3
  %7 = tail call noundef ptr @_Z9luaM_new_P9lua_Statemh(ptr noundef %0, i64 noundef %6, i8 noundef zeroext 0)
  %8 = getelementptr inbounds i8, ptr %0, i64 24
  %9 = load ptr, ptr %8, align 8
  %.not46 = icmp eq i32 %1, 0
  br i1 %.not46, label %.preheader, label %.lr.ph.preheader

.lr.ph.preheader:                                 ; preds = %4
  tail call void @llvm.memset.p0.i64(ptr align 8 %7, i8 0, i64 %6, i1 false)
  br label %.preheader

10:                                               ; preds = %2
  tail call void @_Z11luaM_toobigP9lua_State(ptr noundef %0) #8
  unreachable

.preheader:                                       ; preds = %.lr.ph.preheader, %4
  %11 = getelementptr inbounds i8, ptr %9, i64 12
  %12 = load i32, ptr %11, align 4
  %13 = icmp sgt i32 %12, 0
  br i1 %13, label %.lr.ph44, label %.preheader.._crit_edge45_crit_edge

.preheader.._crit_edge45_crit_edge:               ; preds = %.preheader
  %.pre50 = sext i32 %12 to i64
  br label %._crit_edge45

.lr.ph44:                                         ; preds = %.preheader
  %14 = add nsw i32 %1, -1
  br label %15

15:                                               ; preds = %.lr.ph44, %._crit_edge
  %16 = phi i32 [ %12, %.lr.ph44 ], [ %28, %._crit_edge ]
  %indvars.iv = phi i64 [ 0, %.lr.ph44 ], [ %indvars.iv.next, %._crit_edge ]
  %17 = load ptr, ptr %9, align 8
  %18 = getelementptr inbounds ptr, ptr %17, i64 %indvars.iv
  %19 = load ptr, ptr %18, align 8
  %.not40 = icmp eq ptr %19, null
  br i1 %.not40, label %._crit_edge, label %.lr.ph42

.lr.ph42:                                         ; preds = %15, %.lr.ph42
  %.03441 = phi ptr [ %21, %.lr.ph42 ], [ %19, %15 ]
  %20 = getelementptr inbounds i8, ptr %.03441, i64 8
  %21 = load ptr, ptr %20, align 8
  %22 = getelementptr inbounds i8, ptr %.03441, i64 16
  %23 = load i32, ptr %22, align 8
  %24 = and i32 %23, %14
  %25 = sext i32 %24 to i64
  %26 = getelementptr inbounds ptr, ptr %7, i64 %25
  %27 = load ptr, ptr %26, align 8
  store ptr %27, ptr %20, align 8
  store ptr %.03441, ptr %26, align 8
  %.not = icmp eq ptr %21, null
  br i1 %.not, label %._crit_edge.loopexit, label %.lr.ph42, !llvm.loop !8

._crit_edge.loopexit:                             ; preds = %.lr.ph42
  %.pre = load i32, ptr %11, align 4
  br label %._crit_edge

._crit_edge:                                      ; preds = %._crit_edge.loopexit, %15
  %28 = phi i32 [ %.pre, %._crit_edge.loopexit ], [ %16, %15 ]
  %indvars.iv.next = add nuw nsw i64 %indvars.iv, 1
  %29 = sext i32 %28 to i64
  %30 = icmp slt i64 %indvars.iv.next, %29
  br i1 %30, label %15, label %._crit_edge45, !llvm.loop !9

._crit_edge45:                                    ; preds = %._crit_edge, %.preheader.._crit_edge45_crit_edge
  %.pre-phi = phi i64 [ %.pre50, %.preheader.._crit_edge45_crit_edge ], [ %29, %._crit_edge ]
  %31 = load ptr, ptr %9, align 8
  %32 = shl nsw i64 %.pre-phi, 3
  tail call void @_Z10luaM_free_P9lua_StatePvmh(ptr noundef %0, ptr noundef %31, i64 noundef %32, i8 noundef zeroext 0)
  store i32 %1, ptr %11, align 4
  store ptr %7, ptr %9, align 8
  ret void
}